; ModuleID = '49/183.c'
source_filename = "49/183.c"
target datalayout = "e-m:e-p270:32:32-p271:32:32-p272:64:64-i64:64-f80:128-n8:16:32:64-S128"
target triple = "x86_64-pc-linux-gnu"

@.str = private unnamed_addr constant [3 x i8] c"%c\00", align 1
@.str.1 = private unnamed_addr constant [2 x i8] c"\0A\00", align 1

; Function Attrs: noinline nounwind uwtable
define dso_local void @huiwen(i8* %0, i32 %1, i32 %2) #0 {
  %4 = alloca i8*, align 8
  %5 = alloca i32, align 4
  %6 = alloca i32, align 4
  %7 = alloca i32, align 4
  %8 = alloca i32, align 4
  %9 = alloca i32, align 4
  %10 = alloca i32, align 4
  store i8* %0, i8** %4, align 8
  store i32 %1, i32* %5, align 4
  store i32 %2, i32* %6, align 4
  store i32 0, i32* %7, align 4
  br label %11

11:                                               ; preds = %83, %3
  %12 = load i32, i32* %7, align 4
  %13 = load i32, i32* %5, align 4
  %14 = load i32, i32* %6, align 4
  %15 = sub nsw i32 %13, %14
  %16 = add nsw i32 %15, 1
  %17 = icmp sle i32 %12, %16
  br i1 %17, label %18, label %86

18:                                               ; preds = %11
  store i32 1, i32* %10, align 4
  %19 = load i32, i32* %7, align 4
  store i32 %19, i32* %8, align 4
  br label %20

20:                                               ; preds = %54, %18
  %21 = load i32, i32* %8, align 4
  %22 = load i32, i32* %7, align 4
  %23 = load i32, i32* %6, align 4
  %24 = add nsw i32 %22, %23
  %25 = sub nsw i32 %24, 1
  %26 = icmp sle i32 %21, %25
  br i1 %26, label %27, label %57

27:                                               ; preds = %20
  %28 = load i8*, i8** %4, align 8
  %29 = load i32, i32* %8, align 4
  %30 = sext i32 %29 to i64
  %31 = getelementptr inbounds i8, i8* %28, i64 %30
  %32 = load i8, i8* %31, align 1
  %33 = sext i8 %32 to i32
  %34 = load i8*, i8** %4, align 8
  %35 = load i32, i32* %7, align 4
  %36 = mul nsw i32 2, %35
  %37 = load i32, i32* %6, align 4
  %38 = add nsw i32 %36, %37
  %39 = sub nsw i32 %38, 1
  %40 = load i32, i32* %8, align 4
  %41 = sub nsw i32 %39, %40
  %42 = sext i32 %41 to i64
  %43 = getelementptr inbounds i8, i8* %34, i64 %42
  %44 = load i8, i8* %43, align 1
  %45 = sext i8 %44 to i32
  %46 = icmp eq i32 %33, %45
  br i1 %46, label %47, label %50

47:                                               ; preds = %27
  %48 = load i32, i32* %10, align 4
  %49 = mul nsw i32 %48, 1
  store i32 %49, i32* %10, align 4
  br label %53

50:                                               ; preds = %27
  %51 = load i32, i32* %10, align 4
  %52 = mul nsw i32 %51, 0
  store i32 %52, i32* %10, align 4
  br label %53

53:                                               ; preds = %50, %47
  br label %54

54:                                               ; preds = %53
  %55 = load i32, i32* %8, align 4
  %56 = add nsw i32 %55, 1
  store i32 %56, i32* %8, align 4
  br label %20

57:                                               ; preds = %20
  %58 = load i32, i32* %10, align 4
  %59 = icmp eq i32 %58, 1
  br i1 %59, label %60, label %82

60:                                               ; preds = %57
  %61 = load i32, i32* %7, align 4
  store i32 %61, i32* %9, align 4
  br label %62

62:                                               ; preds = %77, %60
  %63 = load i32, i32* %9, align 4
  %64 = load i32, i32* %7, align 4
  %65 = load i32, i32* %6, align 4
  %66 = add nsw i32 %64, %65
  %67 = sub nsw i32 %66, 1
  %68 = icmp sle i32 %63, %67
  br i1 %68, label %69, label %80

69:                                               ; preds = %62
  %70 = load i8*, i8** %4, align 8
  %71 = load i32, i32* %9, align 4
  %72 = sext i32 %71 to i64
  %73 = getelementptr inbounds i8, i8* %70, i64 %72
  %74 = load i8, i8* %73, align 1
  %75 = sext i8 %74 to i32
  %76 = call i32 (i8*, ...) @printf(i8* getelementptr inbounds ([3 x i8], [3 x i8]* @.str, i64 0, i64 0), i32 %75)
  br label %77

77:                                               ; preds = %69
  %78 = load i32, i32* %9, align 4
  %79 = add nsw i32 %78, 1
  store i32 %79, i32* %9, align 4
  br label %62

80:                                               ; preds = %62
  %81 = call i32 (i8*, ...) @printf(i8* getelementptr inbounds ([2 x i8], [2 x i8]* @.str.1, i64 0, i64 0))
  br label %82

82:                                               ; preds = %80, %57
  br label %83

83:                                               ; preds = %82
  %84 = load i32, i32* %7, align 4
  %85 = add nsw i32 %84, 1
  store i32 %85, i32* %7, align 4
  br label %11

86:                                               ; preds = %11
  ret void
}

declare dso_local i32 @printf(i8*, ...) #1

; Function Attrs: noinline nounwind uwtable
define dso_local i32 @main() #0 {
  %1 = alloca i32, align 4
  %2 = alloca [500 x i8], align 16
  %3 = alloca i32, align 4
  %4 = alloca i32, align 4
  store i32 0, i32* %1, align 4
  %5 = getelementptr inbounds [500 x i8], [500 x i8]* %2, i64 0, i64 0
  %6 = call i32 (i8*, ...) bitcast (i32 (...)* @gets to i32 (i8*, ...)*)(i8* %5)
  %7 = getelementptr inbounds [500 x i8], [500 x i8]* %2, i64 0, i64 0
  %8 = call i64 @strlen(i8* %7) #3
  %9 = trunc i64 %8 to i32
  store i32 %9, i32* %3, align 4
  store i32 2, i32* %4, align 4
  br label %10

10:                                               ; preds = %14, %0
  %11 = load i32, i32* %4, align 4
  %12 = load i32, i32* %3, align 4
  %13 = icmp sle i32 %11, %12
  br i1 %13, label %14, label %20

14:                                               ; preds = %10
  %15 = getelementptr inbounds [500 x i8], [500 x i8]* %2, i64 0, i64 0
  %16 = load i32, i32* %3, align 4
  %17 = load i32, i32* %4, align 4
  call void @huiwen(i8* %15, i32 %16, i32 %17)
  %18 = load i32, i32* %4, align 4
  %19 = add nsw i32 %18, 2
  store i32 %19, i32* %4, align 4
  br label %10

20:                                               ; preds = %10
  ret i32 0
}

declare dso_local i32 @gets(...) #1

; Function Attrs: nounwind readonly
declare dso_local i64 @strlen(i8*) #2


!llvm.module.flags = !{!0}
!llvm.ident = !{!1}

!0 = !{i32 1, !"wchar_size", i32 4}
!1 = !{!"clang version 10.0.0-4ubuntu1 "}
